; Function Attrs: mustprogress uwtable
define internal fastcc noundef zeroext i1 @"_ZN12_GLOBAL__N_117TryGeneratedPathsIRZN20cmFindPackageCommand12SearchPrefixERKNSt7__cxx1112basic_stringIcSt11char_traitsIcESaIcEEEE3$_0RNS_31cmProjectDirectoryListGeneratorEJRNS_39cmCaseInsensitiveDirectoryListGeneratorEEEEbOT_S9_OT0_DpOT1_"(ptr nocapture noundef nonnull readonly align 8 dereferenceable(8) %0, ptr noundef nonnull align 8 dereferenceable(32) %1, ptr noundef nonnull align 8 dereferenceable(56) %2, ptr noundef nonnull align 8 dereferenceable(33) %3) unnamed_addr #3 personality ptr @__gxx_personality_v0 {
  %5 = alloca %"class.std::__cxx11::basic_string", align 8
  %6 = alloca %"class.std::__cxx11::basic_string", align 8
  %7 = getelementptr inbounds i8, ptr %2, i64 16
  %8 = load ptr, ptr %7, align 8
  %9 = getelementptr inbounds i8, ptr %2, i64 24
  %10 = load ptr, ptr %9, align 8
  %.not.i.i.i.i = icmp eq ptr %10, %8
  br i1 %.not.i.i.i.i, label %_ZN12_GLOBAL__N_114ResetGeneratorIRNS_31cmProjectDirectoryListGeneratorEEEvOT_.exit, label %.lr.ph.i.i.i.i.i.i.i

.lr.ph.i.i.i.i.i.i.i:                             ; preds = %4, %.lr.ph.i.i.i.i.i.i.i
  %.05.i.i.i.i.i.i.i = phi ptr [ %11, %.lr.ph.i.i.i.i.i.i.i ], [ %8, %4 ]
  tail call void @_ZNSt7__cxx1112basic_stringIcSt11char_traitsIcESaIcEED1Ev(ptr noundef nonnull align 8 dereferenceable(32) %.05.i.i.i.i.i.i.i) #23
  %11 = getelementptr inbounds i8, ptr %.05.i.i.i.i.i.i.i, i64 32
  %.not.i.i.i.i.i.i.i = icmp eq ptr %11, %10
  br i1 %.not.i.i.i.i.i.i.i, label %_ZSt8_DestroyIPNSt7__cxx1112basic_stringIcSt11char_traitsIcESaIcEEES5_EvT_S7_RSaIT0_E.exit.i.i.i.i, label %.lr.ph.i.i.i.i.i.i.i, !llvm.loop !17

_ZSt8_DestroyIPNSt7__cxx1112basic_stringIcSt11char_traitsIcESaIcEEES5_EvT_S7_RSaIT0_E.exit.i.i.i.i: ; preds = %.lr.ph.i.i.i.i.i.i.i
  store ptr %8, ptr %9, align 8
  %.pre.i.i = load ptr, ptr %7, align 8
  br label %_ZN12_GLOBAL__N_114ResetGeneratorIRNS_31cmProjectDirectoryListGeneratorEEEvOT_.exit

_ZN12_GLOBAL__N_114ResetGeneratorIRNS_31cmProjectDirectoryListGeneratorEEEvOT_.exit: ; preds = %4, %_ZSt8_DestroyIPNSt7__cxx1112basic_stringIcSt11char_traitsIcESaIcEEES5_EvT_S7_RSaIT0_E.exit.i.i.i.i
  %12 = phi ptr [ %8, %4 ], [ %.pre.i.i, %_ZSt8_DestroyIPNSt7__cxx1112basic_stringIcSt11char_traitsIcESaIcEEES5_EvT_S7_RSaIT0_E.exit.i.i.i.i ]
  %13 = getelementptr inbounds i8, ptr %2, i64 40
  store ptr %12, ptr %13, align 8
  call fastcc void @_ZN12_GLOBAL__N_124cmDirectoryListGenerator16GetNextCandidateERKNSt7__cxx1112basic_stringIcSt11char_traitsIcESaIcEEE(ptr dead_on_unwind noalias nonnull writable align 8 %5, ptr noundef nonnull align 8 dereferenceable(48) %2, ptr noundef nonnull align 8 dereferenceable(32) %1)
  %14 = call noundef zeroext i1 @_ZNKSt7__cxx1112basic_stringIcSt11char_traitsIcESaIcEE5emptyEv(ptr noundef nonnull align 8 dereferenceable(32) %5) #23
  br i1 %14, label %._crit_edge, label %.lr.ph

.lr.ph:                                           ; preds = %_ZN12_GLOBAL__N_114ResetGeneratorIRNS_31cmProjectDirectoryListGeneratorEEEvOT_.exit
  %15 = getelementptr inbounds i8, ptr %3, i64 32
  br label %16

16:                                               ; preds = %.lr.ph, %22
  store i8 0, ptr %15, align 8
  %17 = invoke fastcc noundef zeroext i1 @"_ZN12_GLOBAL__N_117TryGeneratedPathsIRZN20cmFindPackageCommand12SearchPrefixERKNSt7__cxx1112basic_stringIcSt11char_traitsIcESaIcEEEE3$_0RNS_39cmCaseInsensitiveDirectoryListGeneratorEJEEEbOT_S9_OT0_DpOT1_"(ptr noundef nonnull align 8 dereferenceable(8) %0, ptr noundef nonnull align 8 dereferenceable(32) %5, ptr noundef nonnull align 8 dereferenceable(33) %3)
          to label %18 unwind label %19

18:                                               ; preds = %16
  br i1 %17, label %._crit_edge, label %21

19:                                               ; preds = %21, %16
  %20 = landingpad { ptr, i32 }
          cleanup
  call void @_ZNSt7__cxx1112basic_stringIcSt11char_traitsIcESaIcEED1Ev(ptr noundef nonnull align 8 dereferenceable(32) %5) #23
  resume { ptr, i32 } %20

21:                                               ; preds = %18
  invoke fastcc void @_ZN12_GLOBAL__N_124cmDirectoryListGenerator16GetNextCandidateERKNSt7__cxx1112basic_stringIcSt11char_traitsIcESaIcEEE(ptr dead_on_unwind noalias nonnull writable align 8 %6, ptr noundef nonnull align 8 dereferenceable(48) %2, ptr noundef nonnull align 8 dereferenceable(32) %1)
          to label %22 unwind label %19

22:                                               ; preds = %21
  %23 = call noundef nonnull align 8 dereferenceable(32) ptr @_ZNSt7__cxx1112basic_stringIcSt11char_traitsIcESaIcEEaSEOS4_(ptr noundef nonnull align 8 dereferenceable(32) %5, ptr noundef nonnull align 8 dereferenceable(32) %6) #23
  call void @_ZNSt7__cxx1112basic_stringIcSt11char_traitsIcESaIcEED1Ev(ptr noundef nonnull align 8 dereferenceable(32) %6) #23
  %24 = call noundef zeroext i1 @_ZNKSt7__cxx1112basic_stringIcSt11char_traitsIcESaIcEE5emptyEv(ptr noundef nonnull align 8 dereferenceable(32) %5) #23
  br i1 %24, label %._crit_edge, label %16, !llvm.loop !907

._crit_edge:                                      ; preds = %22, %18, %_ZN12_GLOBAL__N_114ResetGeneratorIRNS_31cmProjectDirectoryListGeneratorEEEvOT_.exit
  %not. = phi i1 [ false, %_ZN12_GLOBAL__N_114ResetGeneratorIRNS_31cmProjectDirectoryListGeneratorEEEvOT_.exit ], [ %17, %18 ], [ %17, %22 ]
  call void @_ZNSt7__cxx1112basic_stringIcSt11char_traitsIcESaIcEED1Ev(ptr noundef nonnull align 8 dereferenceable(32) %5) #23
  ret i1 %not.
}